; Function Attrs: mustprogress uwtable
define void @_ZNK32pxrInternal_v0_24__pxrReserved__12PlugRegistry16GetPluginForTypeENS_6TfTypeE(ptr dead_on_unwind noalias writable sret(%"class.pxrInternal_v0_24__pxrReserved__::TfWeakPtr.27") align 8 %0, ptr nocapture noundef nonnull readnone align 8 dereferenceable(104) %1, ptr %2) local_unnamed_addr #0 align 2 {
  %4 = alloca %"class.pxrInternal_v0_24__pxrReserved__::TfType", align 8
  %5 = alloca %"class.pxrInternal_v0_24__pxrReserved__::TfType", align 8
  %6 = alloca %"class.pxrInternal_v0_24__pxrReserved__::TfCallContext", align 8
  store ptr %2, ptr %5, align 8
  call void @llvm.lifetime.start.p0(i64 8, ptr nonnull %4)
  call void @_ZN32pxrInternal_v0_24__pxrReserved__6TfTypeC1Ev(ptr noundef nonnull align 8 dereferenceable(8) %4)
  %7 = load ptr, ptr %4, align 8
  %8 = icmp eq ptr %2, %7
  call void @llvm.lifetime.end.p0(i64 8, ptr nonnull %4)
  br i1 %8, label %9, label %14

9:                                                ; preds = %3
  store ptr @.str.8, ptr %6, align 8
  %10 = getelementptr inbounds nuw i8, ptr %6, i64 8
  store ptr @__func__._ZNK32pxrInternal_v0_24__pxrReserved__12PlugRegistry16GetPluginForTypeENS_6TfTypeE, ptr %10, align 8
  %11 = getelementptr inbounds nuw i8, ptr %6, i64 16
  store i64 164, ptr %11, align 8
  %12 = getelementptr inbounds nuw i8, ptr %6, i64 24
  store ptr @__PRETTY_FUNCTION__._ZNK32pxrInternal_v0_24__pxrReserved__12PlugRegistry16GetPluginForTypeENS_6TfTypeE, ptr %12, align 8
  %13 = getelementptr inbounds nuw i8, ptr %6, i64 32
  store i8 0, ptr %13, align 8
  call void (ptr, i32, ptr, ...) @_ZN32pxrInternal_v0_24__pxrReserved__18Tf_PostErrorHelperERKNS_13TfCallContextENS_16TfDiagnosticTypeEPKcz(ptr noundef nonnull align 8 dereferenceable(33) %6, i32 noundef 1, ptr noundef nonnull @.str.11)
  call void @llvm.memset.p0.i64(ptr noundef nonnull align 8 dereferenceable(16) %0, i8 0, i64 16, i1 false)
  br label %15

14:                                               ; preds = %3
  call void @_ZN32pxrInternal_v0_24__pxrReserved__10PlugPlugin17_GetPluginForTypeERKNS_6TfTypeE(ptr dead_on_unwind writable sret(%"class.pxrInternal_v0_24__pxrReserved__::TfWeakPtr.27") align 8 %0, ptr noundef nonnull align 8 dereferenceable(8) %5)
  br label %15

15:                                               ; preds = %14, %9
  ret void
}